target datalayout = "e-m:e-p270:32:32-p271:32:32-p272:64:64-i64:64-i128:128-f80:128-n8:16:32:64-S128"
target triple = "x86_64-pc-linux-gnu"

%struct.H5C_class_t = type { i32, ptr, i32, i32, ptr, ptr, ptr, ptr, ptr, ptr, ptr, ptr, ptr, ptr }
%struct.H5O_t = type { %struct.H5C_cache_entry_t, i64, i64, i8, i64, i8, i32, i8, i8, i64, i64, i64, i64, i32, i32, i64, i64, ptr, i64, i64, i64, i64, ptr, i8, ptr }
%struct.H5C_cache_entry_t = type { ptr, i64, i64, ptr, i8, ptr, i8, i8, i8, i8, i32, i8, i8, i8, i8, i8, i32, ptr, i32, i32, i32, i32, i32, i8, i8, ptr, ptr, ptr, ptr, ptr, ptr, i8, i32, i8, i64, ptr, i64, i64, i32, i8, i32, i32, i8, ptr, ptr, ptr }
%struct.H5O_chunk_proxy_t = type { %struct.H5C_cache_entry_t, ptr, ptr, i32, ptr }
%struct.H5O_chunk_t = type { i64, i64, i64, ptr, ptr }
%struct.H5O_chk_cache_ud_t = type { i8, ptr, i32, i64, %struct.H5O_common_cache_ud_t }
%struct.H5O_common_cache_ud_t = type { ptr, i32, i32, ptr, i64 }

@.str.1 = private unnamed_addr constant [102 x i8] c"generated/home/dtcxzyw/WorkSpace/Projects/compilers/llvm-opt-benchmark/bench/hdf5/hdf5/src/H5Ochunk.c\00", align 1
@H5E_OHDR_g = external global i64, align 8
@H5E_CANTPROTECT_g = external global i64, align 8
@.str.4 = private unnamed_addr constant [35 x i8] c"unable to load object header chunk\00", align 1
@H5AC_OHDR_CHK = external constant [1 x %struct.H5C_class_t], align 16
@H5E_CANTUNPROTECT_g = external global i64, align 8
@.str.10 = private unnamed_addr constant [38 x i8] c"unable to release object header chunk\00", align 1
@__func__.H5O__chunk_update_idx = private unnamed_addr constant [22 x i8] c"H5O__chunk_update_idx\00", align 1

; Function Attrs: nounwind uwtable
define i32 @H5O__chunk_update_idx(ptr noundef %0, ptr noundef %1, i32 noundef %2) #0 {
  %4 = alloca ptr, align 8
  %5 = alloca ptr, align 8
  %6 = alloca i32, align 4
  %7 = alloca ptr, align 8
  %8 = alloca %struct.H5O_chk_cache_ud_t, align 8
  %9 = alloca i32, align 4
  %10 = alloca i64, align 8
  %11 = alloca i8, align 1
  store ptr %0, ptr %4, align 8
  store ptr %1, ptr %5, align 8
  store i32 %2, ptr %6, align 4
  store ptr null, ptr %7, align 8
  store i32 0, ptr %9, align 4
  store i64 -1, ptr %10, align 8
  store i8 0, ptr %11, align 1
  %12 = load ptr, ptr %5, align 8
  %13 = getelementptr inbounds %struct.H5O_t, ptr %12, i32 0, i32 0
  %14 = getelementptr inbounds %struct.H5C_cache_entry_t, ptr %13, i32 0, i32 1
  %15 = load i64, ptr %14, align 8
  call void @H5AC_tag(i64 noundef %15, ptr noundef %10)
  call void @llvm.memset.p0.i64(ptr align 8 %8, i8 0, i64 64, i1 false)
  %16 = load ptr, ptr %5, align 8
  %17 = getelementptr inbounds %struct.H5O_chk_cache_ud_t, ptr %8, i32 0, i32 1
  store ptr %16, ptr %17, align 8
  %18 = load i32, ptr %6, align 4
  %19 = getelementptr inbounds %struct.H5O_chk_cache_ud_t, ptr %8, i32 0, i32 2
  store i32 %18, ptr %19, align 8
  %20 = load ptr, ptr %5, align 8
  %21 = getelementptr inbounds %struct.H5O_t, ptr %20, i32 0, i32 22
  %22 = load ptr, ptr %21, align 8
  %23 = load i32, ptr %6, align 4
  %24 = zext i32 %23 to i64
  %25 = getelementptr inbounds %struct.H5O_chunk_t, ptr %22, i64 %24
  %26 = getelementptr inbounds %struct.H5O_chunk_t, ptr %25, i32 0, i32 1
  %27 = load i64, ptr %26, align 8
  %28 = getelementptr inbounds %struct.H5O_chk_cache_ud_t, ptr %8, i32 0, i32 3
  store i64 %27, ptr %28, align 8
  %29 = load ptr, ptr %4, align 8
  %30 = load ptr, ptr %5, align 8
  %31 = getelementptr inbounds %struct.H5O_t, ptr %30, i32 0, i32 22
  %32 = load ptr, ptr %31, align 8
  %33 = load i32, ptr %6, align 4
  %34 = zext i32 %33 to i64
  %35 = getelementptr inbounds %struct.H5O_chunk_t, ptr %32, i64 %34
  %36 = getelementptr inbounds %struct.H5O_chunk_t, ptr %35, i32 0, i32 0
  %37 = load i64, ptr %36, align 8
  %38 = call ptr @H5AC_protect(ptr noundef %29, ptr noundef @H5AC_OHDR_CHK, i64 noundef %37, ptr noundef %8, i32 noundef 0)
  store ptr %38, ptr %7, align 8
  %39 = icmp eq ptr null, %38
  br i1 %39, label %40, label %55

40:                                               ; preds = %3
  br label %41

41:                                               ; preds = %40
  br label %42

42:                                               ; preds = %41
  br label %43

43:                                               ; preds = %42
  %44 = load i64, ptr @H5E_OHDR_g, align 8
  %45 = load i64, ptr @H5E_CANTPROTECT_g, align 8
  %46 = call i32 (ptr, ptr, i32, i64, i64, ptr, ...) @H5E_printf_stack(ptr noundef @.str.1, ptr noundef @__func__.H5O__chunk_update_idx, i32 noundef 319, i64 noundef %44, i64 noundef %45, ptr noundef @.str.4)
  br label %47

47:                                               ; preds = %43
  store i8 1, ptr %11, align 1
  %48 = load i8, ptr %11, align 1
  %49 = trunc i8 %48 to i1
  %50 = zext i1 %49 to i8
  store i8 %50, ptr %11, align 1
  br label %51

51:                                               ; preds = %47
  br label %52

52:                                               ; preds = %51
  store i32 -1, ptr %9, align 4
  br label %87

53:                                               ; No predecessors!
  br label %54

54:                                               ; preds = %53
  br label %55

55:                                               ; preds = %54, %3
  %56 = load i32, ptr %6, align 4
  %57 = load ptr, ptr %7, align 8
  %58 = getelementptr inbounds %struct.H5O_chunk_proxy_t, ptr %57, i32 0, i32 3
  store i32 %56, ptr %58, align 8
  %59 = load ptr, ptr %4, align 8
  %60 = load ptr, ptr %5, align 8
  %61 = getelementptr inbounds %struct.H5O_t, ptr %60, i32 0, i32 22
  %62 = load ptr, ptr %61, align 8
  %63 = load i32, ptr %6, align 4
  %64 = zext i32 %63 to i64
  %65 = getelementptr inbounds %struct.H5O_chunk_t, ptr %62, i64 %64
  %66 = getelementptr inbounds %struct.H5O_chunk_t, ptr %65, i32 0, i32 0
  %67 = load i64, ptr %66, align 8
  %68 = load ptr, ptr %7, align 8
  %69 = call i32 @H5AC_unprotect(ptr noundef %59, ptr noundef @H5AC_OHDR_CHK, i64 noundef %67, ptr noundef %68, i32 noundef 2)
  %70 = icmp slt i32 %69, 0
  br i1 %70, label %71, label %86

71:                                               ; preds = %55
  br label %72

72:                                               ; preds = %71
  br label %73

73:                                               ; preds = %72
  br label %74

74:                                               ; preds = %73
  %75 = load i64, ptr @H5E_OHDR_g, align 8
  %76 = load i64, ptr @H5E_CANTUNPROTECT_g, align 8
  %77 = call i32 (ptr, ptr, i32, i64, i64, ptr, ...) @H5E_printf_stack(ptr noundef @.str.1, ptr noundef @__func__.H5O__chunk_update_idx, i32 noundef 326, i64 noundef %75, i64 noundef %76, ptr noundef @.str.10)
  br label %78

78:                                               ; preds = %74
  store i8 1, ptr %11, align 1
  %79 = load i8, ptr %11, align 1
  %80 = trunc i8 %79 to i1
  %81 = zext i1 %80 to i8
  store i8 %81, ptr %11, align 1
  br label %82

82:                                               ; preds = %78
  br label %83

83:                                               ; preds = %82
  store i32 -1, ptr %9, align 4
  br label %87

84:                                               ; No predecessors!
  br label %85

85:                                               ; preds = %84
  br label %86

86:                                               ; preds = %85, %55
  br label %87

87:                                               ; preds = %86, %83, %52
  %88 = load i64, ptr %10, align 8
  call void @H5AC_tag(i64 noundef %88, ptr noundef null)
  %89 = load i32, ptr %9, align 4
  ret i32 %89
}