; Function Attrs: nounwind uwtable
define range(i32 -1, 1) i32 @H5O__chunk_update_idx(ptr noundef %0, ptr noundef %1, i32 noundef %2) local_unnamed_addr #0 {
  %4 = alloca %struct.H5O_chk_cache_ud_t, align 8
  %5 = alloca i64, align 8
  store i64 -1, ptr %5, align 8
  %6 = getelementptr inbounds i8, ptr %1, i64 8
  %7 = load i64, ptr %6, align 8
  call void @H5AC_tag(i64 noundef %7, ptr noundef nonnull %5) #3
  call void @llvm.memset.p0.i64(ptr noundef nonnull align 8 dereferenceable(64) %4, i8 0, i64 64, i1 false)
  %8 = getelementptr inbounds i8, ptr %4, i64 8
  store ptr %1, ptr %8, align 8
  %9 = getelementptr inbounds i8, ptr %4, i64 16
  store i32 %2, ptr %9, align 8
  %10 = getelementptr inbounds i8, ptr %1, i64 392
  %11 = load ptr, ptr %10, align 8
  %12 = zext i32 %2 to i64
  %13 = getelementptr inbounds %struct.H5O_chunk_t, ptr %11, i64 %12, i32 1
  %14 = load i64, ptr %13, align 8
  %15 = getelementptr inbounds i8, ptr %4, i64 24
  store i64 %14, ptr %15, align 8
  %16 = getelementptr inbounds %struct.H5O_chunk_t, ptr %11, i64 %12
  %17 = load i64, ptr %16, align 8
  %18 = call ptr @H5AC_protect(ptr noundef %0, ptr noundef nonnull @H5AC_OHDR_CHK, i64 noundef %17, ptr noundef nonnull %4, i32 noundef 0) #3
  %19 = icmp eq ptr %18, null
  br i1 %19, label %20, label %24

20:                                               ; preds = %3
  %21 = load i64, ptr @H5E_OHDR_g, align 8
  %22 = load i64, ptr @H5E_CANTPROTECT_g, align 8
  %23 = call i32 (ptr, ptr, i32, i64, i64, ptr, ...) @H5E_printf_stack(ptr noundef nonnull @.str.1, ptr noundef nonnull @__func__.H5O__chunk_update_idx, i32 noundef 319, i64 noundef %21, i64 noundef %22, ptr noundef nonnull @.str.4) #3
  br label %35

24:                                               ; preds = %3
  %25 = getelementptr inbounds i8, ptr %18, i64 264
  store i32 %2, ptr %25, align 8
  %26 = load ptr, ptr %10, align 8
  %27 = getelementptr inbounds %struct.H5O_chunk_t, ptr %26, i64 %12
  %28 = load i64, ptr %27, align 8
  %29 = call i32 @H5AC_unprotect(ptr noundef %0, ptr noundef nonnull @H5AC_OHDR_CHK, i64 noundef %28, ptr noundef nonnull %18, i32 noundef 2) #3
  %30 = icmp slt i32 %29, 0
  br i1 %30, label %31, label %35

31:                                               ; preds = %24
  %32 = load i64, ptr @H5E_OHDR_g, align 8
  %33 = load i64, ptr @H5E_CANTUNPROTECT_g, align 8
  %34 = call i32 (ptr, ptr, i32, i64, i64, ptr, ...) @H5E_printf_stack(ptr noundef nonnull @.str.1, ptr noundef nonnull @__func__.H5O__chunk_update_idx, i32 noundef 326, i64 noundef %32, i64 noundef %33, ptr noundef nonnull @.str.10) #3
  br label %35

35:                                               ; preds = %24, %31, %20
  %.0 = phi i32 [ -1, %20 ], [ -1, %31 ], [ 0, %24 ]
  %36 = load i64, ptr %5, align 8
  call void @H5AC_tag(i64 noundef %36, ptr noundef null) #3
  ret i32 %.0
}